target datalayout = "e-m:e-p270:32:32-p271:32:32-p272:64:64-i64:64-i128:128-f80:128-n8:16:32:64-S128"
target triple = "x86_64-pc-linux-gnu"

%struct.JsonSerializeExpr = type { i32, ptr, ptr, i32 }

; Function Attrs: nounwind uwtable
define internal zeroext i1 @_equalJsonSerializeExpr(ptr noundef %0, ptr noundef %1) #0 {
  %3 = alloca i1, align 1
  %4 = alloca ptr, align 8
  %5 = alloca ptr, align 8
  store ptr %0, ptr %4, align 8
  store ptr %1, ptr %5, align 8
  br label %6

6:                                                ; preds = %2
  %7 = load ptr, ptr %4, align 8
  %8 = getelementptr inbounds nuw %struct.JsonSerializeExpr, ptr %7, i32 0, i32 1
  %9 = load ptr, ptr %8, align 8
  %10 = load ptr, ptr %5, align 8
  %11 = getelementptr inbounds nuw %struct.JsonSerializeExpr, ptr %10, i32 0, i32 1
  %12 = load ptr, ptr %11, align 8
  %13 = call zeroext i1 @equal(ptr noundef %9, ptr noundef %12)
  br i1 %13, label %15, label %14

14:                                               ; preds = %6
  store i1 false, ptr %3, align 1
  br label %28

15:                                               ; preds = %6
  br label %16

16:                                               ; preds = %15
  br label %17

17:                                               ; preds = %16
  %18 = load ptr, ptr %4, align 8
  %19 = getelementptr inbounds nuw %struct.JsonSerializeExpr, ptr %18, i32 0, i32 2
  %20 = load ptr, ptr %19, align 8
  %21 = load ptr, ptr %5, align 8
  %22 = getelementptr inbounds nuw %struct.JsonSerializeExpr, ptr %21, i32 0, i32 2
  %23 = load ptr, ptr %22, align 8
  %24 = call zeroext i1 @equal(ptr noundef %20, ptr noundef %23)
  br i1 %24, label %26, label %25

25:                                               ; preds = %17
  store i1 false, ptr %3, align 1
  br label %28

26:                                               ; preds = %17
  br label %27

27:                                               ; preds = %26
  store i1 true, ptr %3, align 1
  br label %28

28:                                               ; preds = %27, %25, %14
  %29 = load i1, ptr %3, align 1
  ret i1 %29
}